target datalayout = "e-m:e-p270:32:32-p271:32:32-p272:64:64-i64:64-i128:128-f80:128-n8:16:32:64-S128"
target triple = "x86_64-pc-linux-gnu"

%struct.H5O_msg_class_t = type { i32, ptr, i64, i32, ptr, ptr, ptr, ptr, ptr, ptr, ptr, ptr, ptr, ptr, ptr, ptr, ptr, ptr, ptr, ptr }
%struct.H5O_ainfo_t = type { i8, i8, i32, i64, i64, i64, i64 }
%struct.H5O_t = type { %struct.H5C_cache_entry_t, i64, i64, i8, i64, i8, i32, i8, i8, i64, i64, i64, i64, i32, i32, i64, i64, ptr, i64, i64, i64, i64, ptr, i8, ptr }
%struct.H5C_cache_entry_t = type { ptr, i64, i64, ptr, i8, ptr, i8, i8, i8, i8, i32, i8, i8, i8, i8, i8, i32, ptr, i32, i32, i32, i32, i32, i8, i8, ptr, ptr, ptr, ptr, ptr, ptr, i8, i32, i8, i64, ptr, i64, i64, i32, i8, i32, i32, i8, ptr, ptr, ptr }
%struct.H5O_mesg_t = type { ptr, i8, i8, i32, i32, ptr, ptr, i64 }

@.str = private unnamed_addr constant [106 x i8] c"generated/home/dtcxzyw/WorkSpace/Projects/compilers/llvm-opt-benchmark/bench/hdf5/hdf5/src/H5Oattribute.c\00", align 1
@H5E_ATTR_g = external global i64, align 8
@H5E_CANTGET_g = external global i64, align 8
@.str.3 = private unnamed_addr constant [39 x i8] c"can't check for attribute info message\00", align 1
@H5O_MSG_ATTR = external constant [1 x %struct.H5O_msg_class_t], align 16
@__func__.H5O__attr_count_real = private unnamed_addr constant [21 x i8] c"H5O__attr_count_real\00", align 1

; Function Attrs: nounwind uwtable
define i32 @H5O__attr_count_real(ptr noundef %0, ptr noundef %1, ptr noundef %2) #0 {
  %4 = alloca ptr, align 8
  %5 = alloca ptr, align 8
  %6 = alloca ptr, align 8
  %7 = alloca i32, align 4
  %8 = alloca i8, align 1
  %9 = alloca i32, align 4
  %10 = alloca %struct.H5O_ainfo_t, align 8
  %11 = alloca i64, align 8
  %12 = alloca i32, align 4
  store ptr %0, ptr %4, align 8
  store ptr %1, ptr %5, align 8
  store ptr %2, ptr %6, align 8
  store i32 0, ptr %7, align 4
  store i8 0, ptr %8, align 1
  %13 = load ptr, ptr %5, align 8
  %14 = getelementptr inbounds %struct.H5O_t, ptr %13, i32 0, i32 7
  %15 = load i8, ptr %14, align 8
  %16 = zext i8 %15 to i32
  %17 = icmp sgt i32 %16, 1
  br i1 %17, label %18, label %49

18:                                               ; preds = %3
  store i32 0, ptr %9, align 4
  %19 = load ptr, ptr %4, align 8
  %20 = load ptr, ptr %5, align 8
  %21 = call i32 @H5A__get_ainfo(ptr noundef %19, ptr noundef %20, ptr noundef %10)
  store i32 %21, ptr %9, align 4
  %22 = icmp slt i32 %21, 0
  br i1 %22, label %23, label %38

23:                                               ; preds = %18
  br label %24

24:                                               ; preds = %23
  br label %25

25:                                               ; preds = %24
  br label %26

26:                                               ; preds = %25
  %27 = load i64, ptr @H5E_ATTR_g, align 8
  %28 = load i64, ptr @H5E_CANTGET_g, align 8
  %29 = call i32 (ptr, ptr, i32, i64, i64, ptr, ...) @H5E_printf_stack(ptr noundef @.str, ptr noundef @__func__.H5O__attr_count_real, i32 noundef 1643, i64 noundef %27, i64 noundef %28, ptr noundef @.str.3)
  br label %30

30:                                               ; preds = %26
  store i8 1, ptr %8, align 1
  %31 = load i8, ptr %8, align 1
  %32 = trunc i8 %31 to i1
  %33 = zext i1 %32 to i8
  store i8 %33, ptr %8, align 1
  br label %34

34:                                               ; preds = %30
  br label %35

35:                                               ; preds = %34
  store i32 -1, ptr %7, align 4
  br label %78

36:                                               ; No predecessors!
  br label %37

37:                                               ; preds = %36
  br label %48

38:                                               ; preds = %18
  %39 = load i32, ptr %9, align 4
  %40 = icmp sgt i32 %39, 0
  br i1 %40, label %41, label %45

41:                                               ; preds = %38
  %42 = getelementptr inbounds %struct.H5O_ainfo_t, ptr %10, i32 0, i32 4
  %43 = load i64, ptr %42, align 8
  %44 = load ptr, ptr %6, align 8
  store i64 %43, ptr %44, align 8
  br label %47

45:                                               ; preds = %38
  %46 = load ptr, ptr %6, align 8
  store i64 0, ptr %46, align 8
  br label %47

47:                                               ; preds = %45, %41
  br label %48

48:                                               ; preds = %47, %37
  br label %77

49:                                               ; preds = %3
  store i64 0, ptr %11, align 8
  store i32 0, ptr %12, align 4
  br label %50

50:                                               ; preds = %71, %49
  %51 = load i32, ptr %12, align 4
  %52 = zext i32 %51 to i64
  %53 = load ptr, ptr %5, align 8
  %54 = getelementptr inbounds %struct.H5O_t, ptr %53, i32 0, i32 15
  %55 = load i64, ptr %54, align 8
  %56 = icmp ult i64 %52, %55
  br i1 %56, label %57, label %74

57:                                               ; preds = %50
  %58 = load ptr, ptr %5, align 8
  %59 = getelementptr inbounds %struct.H5O_t, ptr %58, i32 0, i32 17
  %60 = load ptr, ptr %59, align 8
  %61 = load i32, ptr %12, align 4
  %62 = zext i32 %61 to i64
  %63 = getelementptr inbounds %struct.H5O_mesg_t, ptr %60, i64 %62
  %64 = getelementptr inbounds %struct.H5O_mesg_t, ptr %63, i32 0, i32 0
  %65 = load ptr, ptr %64, align 8
  %66 = icmp eq ptr %65, @H5O_MSG_ATTR
  br i1 %66, label %67, label %70

67:                                               ; preds = %57
  %68 = load i64, ptr %11, align 8
  %69 = add i64 %68, 1
  store i64 %69, ptr %11, align 8
  br label %70

70:                                               ; preds = %67, %57
  br label %71

71:                                               ; preds = %70
  %72 = load i32, ptr %12, align 4
  %73 = add i32 %72, 1
  store i32 %73, ptr %12, align 4
  br label %50

74:                                               ; preds = %50
  %75 = load i64, ptr %11, align 8
  %76 = load ptr, ptr %6, align 8
  store i64 %75, ptr %76, align 8
  br label %77

77:                                               ; preds = %74, %48
  br label %78

78:                                               ; preds = %77, %35
  %79 = load i32, ptr %7, align 4
  ret i32 %79
}