; Function Attrs: nounwind uwtable
define range(i32 -1, 1) i32 @H5O__attr_count_real(ptr noundef %0, ptr noundef %1, ptr nocapture noundef writeonly %2) local_unnamed_addr #0 {
  %4 = alloca %struct.H5O_ainfo_t, align 8
  %5 = getelementptr inbounds i8, ptr %1, i64 288
  %6 = load i8, ptr %5, align 8
  %7 = icmp ugt i8 %6, 1
  br i1 %7, label %12, label %.preheader

.preheader:                                       ; preds = %3
  %8 = getelementptr inbounds i8, ptr %1, i64 336
  %9 = load i64, ptr %8, align 8
  %.not21 = icmp eq i64 %9, 0
  br i1 %.not21, label %._crit_edge, label %.lr.ph

.lr.ph:                                           ; preds = %.preheader
  %10 = getelementptr inbounds i8, ptr %1, i64 352
  %11 = load ptr, ptr %10, align 8
  br label %24

12:                                               ; preds = %3
  %13 = call i32 @H5A__get_ainfo(ptr noundef %0, ptr noundef nonnull %1, ptr noundef nonnull %4) #9
  %14 = icmp slt i32 %13, 0
  br i1 %14, label %15, label %19

15:                                               ; preds = %12
  %16 = load i64, ptr @H5E_ATTR_g, align 8
  %17 = load i64, ptr @H5E_CANTGET_g, align 8
  %18 = call i32 (ptr, ptr, i32, i64, i64, ptr, ...) @H5E_printf_stack(ptr noundef nonnull @.str, ptr noundef nonnull @__func__.H5O__attr_count_real, i32 noundef 1643, i64 noundef %16, i64 noundef %17, ptr noundef nonnull @.str.3) #9
  br label %33

19:                                               ; preds = %12
  %.not = icmp eq i32 %13, 0
  br i1 %.not, label %23, label %20

20:                                               ; preds = %19
  %21 = getelementptr inbounds i8, ptr %4, i64 16
  %22 = load i64, ptr %21, align 8
  store i64 %22, ptr %2, align 8
  br label %33

23:                                               ; preds = %19
  store i64 0, ptr %2, align 8
  br label %33

24:                                               ; preds = %.lr.ph, %24
  %25 = phi i64 [ 0, %.lr.ph ], [ %31, %24 ]
  %.020 = phi i32 [ 0, %.lr.ph ], [ %30, %24 ]
  %.01519 = phi i64 [ 0, %.lr.ph ], [ %spec.select, %24 ]
  %26 = getelementptr inbounds %struct.H5O_mesg_t, ptr %11, i64 %25
  %27 = load ptr, ptr %26, align 8
  %28 = icmp eq ptr %27, @H5O_MSG_ATTR
  %29 = zext i1 %28 to i64
  %spec.select = add i64 %.01519, %29
  %30 = add i32 %.020, 1
  %31 = zext i32 %30 to i64
  %32 = icmp ugt i64 %9, %31
  br i1 %32, label %24, label %._crit_edge

._crit_edge:                                      ; preds = %24, %.preheader
  %.015.lcssa = phi i64 [ 0, %.preheader ], [ %spec.select, %24 ]
  store i64 %.015.lcssa, ptr %2, align 8
  br label %33

33:                                               ; preds = %._crit_edge, %20, %23, %15
  %.016 = phi i32 [ -1, %15 ], [ 0, %20 ], [ 0, %23 ], [ 0, %._crit_edge ]
  ret i32 %.016
}